target datalayout = "e-m:e-p270:32:32-p271:32:32-p272:64:64-i64:64-i128:128-f80:128-n8:16:32:64-S128"
target triple = "x86_64-pc-linux-gnu"

%"class.Ipopt::PDPerturbationHandler" = type <{ %"class.Ipopt::AlgorithmStrategyObject.base", [7 x i8], double, double, double, double, double, double, double, double, i8, [3 x i8], i32, i32, i32, i32, [4 x i8], double, double, double, double, double, double, double, double, i8, [3 x i8], i32, i8, [7 x i8] }>
%"class.Ipopt::AlgorithmStrategyObject.base" = type <{ %"class.Ipopt::ReferencedObject.base", [4 x i8], %"class.Ipopt::SmartPtr", %"class.Ipopt::SmartPtr.0", %"class.Ipopt::SmartPtr.1", %"class.Ipopt::SmartPtr.2", i8 }>
%"class.Ipopt::ReferencedObject.base" = type <{ ptr, i32 }>
%"class.Ipopt::SmartPtr" = type { ptr }
%"class.Ipopt::SmartPtr.0" = type { ptr }
%"class.Ipopt::SmartPtr.1" = type { ptr }
%"class.Ipopt::SmartPtr.2" = type { ptr }
%"class.Ipopt::AlgorithmStrategyObject" = type <{ %"class.Ipopt::ReferencedObject.base", [4 x i8], %"class.Ipopt::SmartPtr", %"class.Ipopt::SmartPtr.0", %"class.Ipopt::SmartPtr.1", %"class.Ipopt::SmartPtr.2", i8, [7 x i8] }>
%"class.std::__cxx11::basic_string" = type { %"struct.std::__cxx11::basic_string<char>::_Alloc_hider", i64, %union.anon }
%"struct.std::__cxx11::basic_string<char>::_Alloc_hider" = type { ptr }
%union.anon = type { i64, [8 x i8] }
%"class.Ipopt::IpoptData" = type { %"class.Ipopt::ReferencedObject.base", %"class.Ipopt::SmartPtr.19", %"class.Ipopt::SmartPtr.19", %"class.Ipopt::SmartPtr.20", %"class.Ipopt::SmartPtr.19", i8, %"class.Ipopt::SmartPtr.19", i8, i32, double, i8, double, i8, i8, i8, double, i8, i8, double, double, i8, double, i32, i8, %"class.std::__cxx11::basic_string", double, i32, %"class.Ipopt::SmartPtr.21", %"class.Ipopt::TimingStatistics", %"class.Ipopt::SmartPtr.22", double, double, double, double }
%"class.Ipopt::SmartPtr.20" = type { ptr }
%"class.Ipopt::SmartPtr.19" = type { ptr }
%"class.Ipopt::SmartPtr.21" = type { ptr }
%"class.Ipopt::TimingStatistics" = type { %"class.Ipopt::ReferencedObject.base", [4 x i8], %"class.Ipopt::TimedTask", %"class.Ipopt::TimedTask", %"class.Ipopt::TimedTask", %"class.Ipopt::TimedTask", %"class.Ipopt::TimedTask", %"class.Ipopt::TimedTask", %"class.Ipopt::TimedTask", %"class.Ipopt::TimedTask", %"class.Ipopt::TimedTask", %"class.Ipopt::TimedTask", %"class.Ipopt::TimedTask", %"class.Ipopt::TimedTask", %"class.Ipopt::TimedTask", %"class.Ipopt::TimedTask", %"class.Ipopt::TimedTask", %"class.Ipopt::TimedTask", %"class.Ipopt::TimedTask", %"class.Ipopt::TimedTask", %"class.Ipopt::TimedTask", %"class.Ipopt::TimedTask", %"class.Ipopt::TimedTask", %"class.Ipopt::TimedTask", %"class.Ipopt::TimedTask", %"class.Ipopt::TimedTask", %"class.Ipopt::TimedTask", %"class.Ipopt::TimedTask", %"class.Ipopt::TimedTask", %"class.Ipopt::TimedTask", %"class.Ipopt::TimedTask", %"class.Ipopt::TimedTask", %"class.Ipopt::TimedTask", %"class.Ipopt::TimedTask", %"class.Ipopt::TimedTask", %"class.Ipopt::TimedTask", %"class.Ipopt::TimedTask" }
%"class.Ipopt::TimedTask" = type <{ double, double, double, double, double, double, i8, i8, i8, [5 x i8] }>
%"class.Ipopt::SmartPtr.22" = type { ptr }

; Function Attrs: mustprogress nounwind uwtable
define linkonce_odr noundef nonnull align 8 dereferenceable(2232) ptr @_ZNK5Ipopt8SmartPtrINS_9IpoptDataEEdeEv(ptr noundef nonnull align 8 dereferenceable(8) %0) #5 comdat align 2 {
  %2 = alloca ptr, align 8
  store ptr %0, ptr %2, align 8
  %3 = load ptr, ptr %2, align 8
  %4 = getelementptr inbounds %"class.Ipopt::SmartPtr.1", ptr %3, i32 0, i32 0
  %5 = load ptr, ptr %4, align 8
  ret ptr %5
}

; Function Attrs: mustprogress nounwind uwtable
define linkonce_odr noundef double @_ZNK5Ipopt9IpoptData7curr_muEv(ptr noundef nonnull align 8 dereferenceable(2232) %0) #5 comdat align 2 {
  %2 = alloca ptr, align 8
  store ptr %0, ptr %2, align 8
  %3 = load ptr, ptr %2, align 8
  %4 = getelementptr inbounds %"class.Ipopt::IpoptData", ptr %3, i32 0, i32 9
  %5 = load double, ptr %4, align 8
  ret double %5
}

; Function Attrs: mustprogress uwtable
define linkonce_odr noundef nonnull align 8 dereferenceable(2232) ptr @_ZNK5Ipopt23AlgorithmStrategyObject6IpDataEv(ptr noundef nonnull align 8 dereferenceable(49) %0) #4 comdat align 2 {
  %2 = alloca ptr, align 8
  store ptr %0, ptr %2, align 8
  %3 = load ptr, ptr %2, align 8
  %4 = getelementptr inbounds %"class.Ipopt::AlgorithmStrategyObject", ptr %3, i32 0, i32 4
  %5 = call noundef nonnull align 8 dereferenceable(2232) ptr @_ZNK5Ipopt8SmartPtrINS_9IpoptDataEEdeEv(ptr noundef nonnull align 8 dereferenceable(8) %4)
  ret ptr %5
}

; Function Attrs: mustprogress uwtable
define noundef double @_ZN5Ipopt21PDPerturbationHandler8delta_cdEv(ptr noundef nonnull align 8 dereferenceable(217) %0) #4 align 2 {
  %2 = alloca ptr, align 8
  store ptr %0, ptr %2, align 8
  %3 = load ptr, ptr %2, align 8
  %4 = getelementptr inbounds %"class.Ipopt::PDPerturbationHandler", ptr %3, i32 0, i32 23
  %5 = load double, ptr %4, align 8
  %6 = call noundef nonnull align 8 dereferenceable(2232) ptr @_ZNK5Ipopt23AlgorithmStrategyObject6IpDataEv(ptr noundef nonnull align 8 dereferenceable(49) %3)
  %7 = call noundef double @_ZNK5Ipopt9IpoptData7curr_muEv(ptr noundef nonnull align 8 dereferenceable(2232) %6)
  %8 = getelementptr inbounds %"class.Ipopt::PDPerturbationHandler", ptr %3, i32 0, i32 24
  %9 = load double, ptr %8, align 8
  %10 = call double @pow(double noundef %7, double noundef %9) #3
  %11 = fmul double %5, %10
  ret double %11
}

; Function Attrs: mustprogress uwtable
define noundef zeroext i1 @_ZN5Ipopt21PDPerturbationHandler22PerturbForWrongInertiaERdS1_S1_S1_(ptr noundef nonnull align 8 dereferenceable(217) %0, ptr noundef nonnull align 8 dereferenceable(8) %1, ptr noundef nonnull align 8 dereferenceable(8) %2, ptr noundef nonnull align 8 dereferenceable(8) %3, ptr noundef nonnull align 8 dereferenceable(8) %4) unnamed_addr #4 align 2 {
  %6 = alloca ptr, align 8
  %7 = alloca ptr, align 8
  %8 = alloca ptr, align 8
  %9 = alloca ptr, align 8
  %10 = alloca ptr, align 8
  %11 = alloca i8, align 1
  store ptr %0, ptr %6, align 8
  store ptr %1, ptr %7, align 8
  store ptr %2, ptr %8, align 8
  store ptr %3, ptr %9, align 8
  store ptr %4, ptr %10, align 8
  %12 = load ptr, ptr %6, align 8
  call void @_ZN5Ipopt21PDPerturbationHandler13finalize_testEv(ptr noundef nonnull align 8 dereferenceable(217) %12)
  %13 = load ptr, ptr %7, align 8
  %14 = load ptr, ptr %8, align 8
  %15 = load ptr, ptr %9, align 8
  %16 = load ptr, ptr %10, align 8
  %17 = call noundef zeroext i1 @_ZN5Ipopt21PDPerturbationHandler28get_deltas_for_wrong_inertiaERdS1_S1_S1_(ptr noundef nonnull align 8 dereferenceable(217) %12, ptr noundef nonnull align 8 dereferenceable(8) %13, ptr noundef nonnull align 8 dereferenceable(8) %14, ptr noundef nonnull align 8 dereferenceable(8) %15, ptr noundef nonnull align 8 dereferenceable(8) %16)
  %18 = zext i1 %17 to i8
  store i8 %18, ptr %11, align 1
  %19 = load i8, ptr %11, align 1
  %20 = trunc i8 %19 to i1
  br i1 %20, label %46, label %21

21:                                               ; preds = %5
  %22 = load ptr, ptr %9, align 8
  %23 = load double, ptr %22, align 8
  %24 = fcmp oeq double %23, 0.000000e+00
  br i1 %24, label %25, label %46

25:                                               ; preds = %21
  %26 = call noundef double @_ZN5Ipopt21PDPerturbationHandler8delta_cdEv(ptr noundef nonnull align 8 dereferenceable(217) %12)
  %27 = getelementptr inbounds %"class.Ipopt::PDPerturbationHandler", ptr %12, i32 0, i32 8
  store double %26, ptr %27, align 8
  %28 = getelementptr inbounds %"class.Ipopt::PDPerturbationHandler", ptr %12, i32 0, i32 8
  %29 = load double, ptr %28, align 8
  %30 = getelementptr inbounds %"class.Ipopt::PDPerturbationHandler", ptr %12, i32 0, i32 9
  store double %29, ptr %30, align 8
  %31 = getelementptr inbounds %"class.Ipopt::PDPerturbationHandler", ptr %12, i32 0, i32 6
  store double 0.000000e+00, ptr %31, align 8
  %32 = getelementptr inbounds %"class.Ipopt::PDPerturbationHandler", ptr %12, i32 0, i32 7
  store double 0.000000e+00, ptr %32, align 8
  %33 = getelementptr inbounds %"class.Ipopt::PDPerturbationHandler", ptr %12, i32 0, i32 15
  store i32 0, ptr %33, align 8
  %34 = getelementptr inbounds %"class.Ipopt::PDPerturbationHandler", ptr %12, i32 0, i32 12
  %35 = load i32, ptr %34, align 4
  %36 = icmp eq i32 %35, 2
  br i1 %36, label %37, label %39

37:                                               ; preds = %25
  %38 = getelementptr inbounds %"class.Ipopt::PDPerturbationHandler", ptr %12, i32 0, i32 12
  store i32 0, ptr %38, align 4
  br label %39

39:                                               ; preds = %37, %25
  %40 = load ptr, ptr %7, align 8
  %41 = load ptr, ptr %8, align 8
  %42 = load ptr, ptr %9, align 8
  %43 = load ptr, ptr %10, align 8
  %44 = call noundef zeroext i1 @_ZN5Ipopt21PDPerturbationHandler28get_deltas_for_wrong_inertiaERdS1_S1_S1_(ptr noundef nonnull align 8 dereferenceable(217) %12, ptr noundef nonnull align 8 dereferenceable(8) %40, ptr noundef nonnull align 8 dereferenceable(8) %41, ptr noundef nonnull align 8 dereferenceable(8) %42, ptr noundef nonnull align 8 dereferenceable(8) %43)
  %45 = zext i1 %44 to i8
  store i8 %45, ptr %11, align 1
  br label %46

46:                                               ; preds = %39, %21, %5
  %47 = load i8, ptr %11, align 1
  %48 = trunc i8 %47 to i1
  ret i1 %48
}