; Function Attrs: mustprogress uwtable
define noundef zeroext i1 @_ZN5Ipopt21PDPerturbationHandler22PerturbForWrongInertiaERdS1_S1_S1_(ptr nocapture noundef nonnull align 8 dereferenceable(217) %0, ptr nocapture noundef nonnull align 8 dereferenceable(8) %1, ptr nocapture noundef nonnull writeonly align 8 dereferenceable(8) %2, ptr nocapture noundef nonnull align 8 dereferenceable(8) %3, ptr nocapture noundef nonnull writeonly align 8 dereferenceable(8) %4) unnamed_addr #4 align 2 {
  tail call void @_ZN5Ipopt21PDPerturbationHandler13finalize_testEv(ptr noundef nonnull align 8 dereferenceable(217) %0)
  %6 = tail call noundef zeroext i1 @_ZN5Ipopt21PDPerturbationHandler28get_deltas_for_wrong_inertiaERdS1_S1_S1_(ptr noundef nonnull align 8 dereferenceable(217) %0, ptr noundef nonnull align 8 dereferenceable(8) %1, ptr noundef nonnull align 8 dereferenceable(8) %2, ptr noundef nonnull align 8 dereferenceable(8) %3, ptr noundef nonnull align 8 dereferenceable(8) %4)
  %7 = load double, ptr %3, align 8
  %8 = fcmp une double %7, 0.000000e+00
  %or.cond.not = select i1 %6, i1 true, i1 %8
  br i1 %or.cond.not, label %30, label %9

9:                                                ; preds = %5
  %10 = getelementptr inbounds i8, ptr %0, i64 192
  %11 = load double, ptr %10, align 8
  %12 = getelementptr inbounds i8, ptr %0, i64 32
  %13 = load ptr, ptr %12, align 8
  %14 = getelementptr inbounds i8, ptr %13, i64 72
  %15 = load double, ptr %14, align 8
  %16 = getelementptr inbounds i8, ptr %0, i64 200
  %17 = load double, ptr %16, align 8
  %18 = tail call double @pow(double noundef %15, double noundef %17) #14
  %19 = fmul double %11, %18
  %20 = getelementptr inbounds i8, ptr %0, i64 104
  store double %19, ptr %20, align 8
  %21 = getelementptr inbounds i8, ptr %0, i64 112
  store double %19, ptr %21, align 8
  %22 = getelementptr inbounds i8, ptr %0, i64 88
  %23 = getelementptr inbounds i8, ptr %0, i64 136
  store i32 0, ptr %23, align 8
  %24 = getelementptr inbounds i8, ptr %0, i64 124
  tail call void @llvm.memset.p0.i64(ptr noundef nonnull align 8 dereferenceable(16) %22, i8 0, i64 16, i1 false)
  %25 = load i32, ptr %24, align 4
  %26 = icmp eq i32 %25, 2
  br i1 %26, label %27, label %28

27:                                               ; preds = %9
  store i32 0, ptr %24, align 4
  br label %28

28:                                               ; preds = %27, %9
  %29 = tail call noundef zeroext i1 @_ZN5Ipopt21PDPerturbationHandler28get_deltas_for_wrong_inertiaERdS1_S1_S1_(ptr noundef nonnull align 8 dereferenceable(217) %0, ptr noundef nonnull align 8 dereferenceable(8) %1, ptr noundef nonnull align 8 dereferenceable(8) %2, ptr noundef nonnull align 8 dereferenceable(8) %3, ptr noundef nonnull align 8 dereferenceable(8) %4)
  br label %30

30:                                               ; preds = %28, %5
  %.0.in = phi i1 [ %6, %5 ], [ %29, %28 ]
  ret i1 %.0.in
}